target datalayout = "e-m:e-p270:32:32-p271:32:32-p272:64:64-i64:64-i128:128-f80:128-n8:16:32:64-S128"
target triple = "x86_64-pc-linux-gnu"

%struct.png_info_def = type { i32, i32, i32, i64, ptr, i16, i16, i8, i8, i8, i8, i8, i8, i8, i8, [8 x i8], %struct.png_colorspace, ptr, ptr, i32, i32, i32, ptr, %struct.png_time_struct, %struct.png_color_8_struct, ptr, %struct.png_color_16_struct, %struct.png_color_16_struct, i32, i32, i8, i32, i32, i8, ptr, ptr, i32, i32, ptr, ptr, i8, i8, i32, ptr, i32, ptr, i32, i8, ptr, ptr, ptr }
%struct.png_colorspace = type { i32, %struct.png_xy, %struct.png_XYZ, i16, i16 }
%struct.png_xy = type { i32, i32, i32, i32, i32, i32, i32, i32 }
%struct.png_XYZ = type { i32, i32, i32, i32, i32, i32, i32, i32, i32 }
%struct.png_time_struct = type { i16, i8, i8, i8, i8, i8 }
%struct.png_color_8_struct = type { i8, i8, i8, i8, i8 }
%struct.png_color_16_struct = type { i8, i16, i16, i16, i16 }
%struct.png_struct_def = type { [1 x %struct.__jmp_buf_tag], ptr, ptr, i64, ptr, ptr, ptr, ptr, ptr, ptr, ptr, ptr, i8, i8, i32, i32, i32, i32, %struct.z_stream_s, i32, i32, i32, i32, i64, i32, i32, i32, ptr, ptr, i64, i32, i32, ptr, i16, i32, i16, i8, i8, i8, i8, i8, i8, i8, i8, i8, i8, i8, i8, i8, i8, i16, i8, i32, %struct.png_color_16_struct, %struct.png_color_16_struct, i32, i32, ptr, ptr, ptr, ptr, ptr, ptr, %struct.png_color_8_struct, %struct.png_color_8_struct, ptr, %struct.png_color_16_struct, ptr, ptr, ptr, ptr, ptr, ptr, ptr, ptr, ptr, i32, i32, i64, i64, i64, i64, i32, i32, ptr, ptr, [29 x i8], i32, ptr, ptr, i32, i32, ptr, i8, i8, i16, i16, ptr, i32, i8, ptr, ptr, ptr, ptr, ptr, ptr, ptr, i8, i32, i32, i32, i64, %struct.png_unknown_chunk_t, i64, ptr, i64, i32, i32, ptr, [4 x ptr], %struct.png_colorspace }
%struct.__jmp_buf_tag = type { [8 x i64], i32, %struct.__sigset_t }
%struct.__sigset_t = type { [16 x i64] }
%struct.z_stream_s = type { ptr, i32, i64, ptr, i32, i64, ptr, ptr, ptr, ptr, ptr, i32, i64, i64 }
%struct.png_unknown_chunk_t = type { [5 x i8], ptr, i64, i8 }

@.str.36 = private unnamed_addr constant [28 x i8] c"Ignoring invalid time value\00", align 1

; Function Attrs: nounwind uwtable
define hidden void @png_set_tIME(ptr noalias noundef %0, ptr noalias noundef %1, ptr noundef %2) #0 {
  %4 = alloca ptr, align 8
  %5 = alloca ptr, align 8
  %6 = alloca ptr, align 8
  store ptr %0, ptr %4, align 8
  store ptr %1, ptr %5, align 8
  store ptr %2, ptr %6, align 8
  %7 = load ptr, ptr %4, align 8
  %8 = icmp eq ptr %7, null
  br i1 %8, label %21, label %9

9:                                                ; preds = %3
  %10 = load ptr, ptr %5, align 8
  %11 = icmp eq ptr %10, null
  br i1 %11, label %21, label %12

12:                                               ; preds = %9
  %13 = load ptr, ptr %6, align 8
  %14 = icmp eq ptr %13, null
  br i1 %14, label %21, label %15

15:                                               ; preds = %12
  %16 = load ptr, ptr %4, align 8
  %17 = getelementptr inbounds %struct.png_struct_def, ptr %16, i32 0, i32 14
  %18 = load i32, ptr %17, align 4
  %19 = and i32 %18, 512
  %20 = icmp ne i32 %19, 0
  br i1 %20, label %21, label %22

21:                                               ; preds = %15, %12, %9, %3
  br label %74

22:                                               ; preds = %15
  %23 = load ptr, ptr %6, align 8
  %24 = getelementptr inbounds %struct.png_time_struct, ptr %23, i32 0, i32 1
  %25 = load i8, ptr %24, align 2
  %26 = zext i8 %25 to i32
  %27 = icmp eq i32 %26, 0
  br i1 %27, label %64, label %28

28:                                               ; preds = %22
  %29 = load ptr, ptr %6, align 8
  %30 = getelementptr inbounds %struct.png_time_struct, ptr %29, i32 0, i32 1
  %31 = load i8, ptr %30, align 2
  %32 = zext i8 %31 to i32
  %33 = icmp sgt i32 %32, 12
  br i1 %33, label %64, label %34

34:                                               ; preds = %28
  %35 = load ptr, ptr %6, align 8
  %36 = getelementptr inbounds %struct.png_time_struct, ptr %35, i32 0, i32 2
  %37 = load i8, ptr %36, align 1
  %38 = zext i8 %37 to i32
  %39 = icmp eq i32 %38, 0
  br i1 %39, label %64, label %40

40:                                               ; preds = %34
  %41 = load ptr, ptr %6, align 8
  %42 = getelementptr inbounds %struct.png_time_struct, ptr %41, i32 0, i32 2
  %43 = load i8, ptr %42, align 1
  %44 = zext i8 %43 to i32
  %45 = icmp sgt i32 %44, 31
  br i1 %45, label %64, label %46

46:                                               ; preds = %40
  %47 = load ptr, ptr %6, align 8
  %48 = getelementptr inbounds %struct.png_time_struct, ptr %47, i32 0, i32 3
  %49 = load i8, ptr %48, align 2
  %50 = zext i8 %49 to i32
  %51 = icmp sgt i32 %50, 23
  br i1 %51, label %64, label %52

52:                                               ; preds = %46
  %53 = load ptr, ptr %6, align 8
  %54 = getelementptr inbounds %struct.png_time_struct, ptr %53, i32 0, i32 4
  %55 = load i8, ptr %54, align 1
  %56 = zext i8 %55 to i32
  %57 = icmp sgt i32 %56, 59
  br i1 %57, label %64, label %58

58:                                               ; preds = %52
  %59 = load ptr, ptr %6, align 8
  %60 = getelementptr inbounds %struct.png_time_struct, ptr %59, i32 0, i32 5
  %61 = load i8, ptr %60, align 2
  %62 = zext i8 %61 to i32
  %63 = icmp sgt i32 %62, 60
  br i1 %63, label %64, label %66

64:                                               ; preds = %58, %52, %46, %40, %34, %28, %22
  %65 = load ptr, ptr %4, align 8
  call void @png_warning(ptr noundef %65, ptr noundef @.str.36)
  br label %74

66:                                               ; preds = %58
  %67 = load ptr, ptr %5, align 8
  %68 = getelementptr inbounds %struct.png_info_def, ptr %67, i32 0, i32 23
  %69 = load ptr, ptr %6, align 8
  call void @llvm.memcpy.p0.p0.i64(ptr align 8 %68, ptr align 2 %69, i64 8, i1 false)
  %70 = load ptr, ptr %5, align 8
  %71 = getelementptr inbounds %struct.png_info_def, ptr %70, i32 0, i32 2
  %72 = load i32, ptr %71, align 8
  %73 = or i32 %72, 512
  store i32 %73, ptr %71, align 8
  br label %74

74:                                               ; preds = %66, %64, %21
  ret void
}